target datalayout = "e-m:e-p270:32:32-p271:32:32-p272:64:64-i64:64-i128:128-f80:128-n8:16:32:64-S128"
target triple = "x86_64-pc-linux-gnu"

%struct.slurm_acct_storage_ops = type { ptr, ptr, ptr, ptr, ptr, ptr, ptr, ptr, ptr, ptr, ptr, ptr, ptr, ptr, ptr, ptr, ptr, ptr, ptr, ptr, ptr, ptr, ptr, ptr, ptr, ptr, ptr, ptr, ptr, ptr, ptr, ptr, ptr, ptr, ptr, ptr, ptr, ptr, ptr, ptr, ptr, ptr, ptr, ptr, ptr, ptr, ptr, ptr, ptr, ptr, ptr, ptr, ptr, ptr, ptr, ptr, ptr, ptr, ptr, ptr, ptr, ptr, ptr, ptr, ptr, ptr, ptr, ptr, ptr, ptr, ptr, ptr, ptr, ptr, ptr, ptr, ptr, ptr, ptr, ptr }
%struct.slurmdb_job_cond_t = type { ptr, ptr, ptr, ptr, i32, i32, i32, i32, i32, ptr, ptr, ptr, i32, i32, ptr, ptr, ptr, ptr, ptr, ptr, ptr, i32, i32, i64, i64, ptr, ptr, ptr }

@plugin_inited = internal global i32 0, align 4
@ops = internal global %struct.slurm_acct_storage_ops zeroinitializer, align 8

; Function Attrs: nounwind uwtable
define dso_local ptr @jobacct_storage_g_get_jobs_cond(ptr noundef %0, i32 noundef %1, ptr noundef %2) #0 {
  %4 = alloca ptr, align 8
  %5 = alloca ptr, align 8
  %6 = alloca i32, align 4
  %7 = alloca ptr, align 8
  %8 = alloca ptr, align 8
  %9 = alloca i32, align 4
  store ptr %0, ptr %5, align 8
  store i32 %1, ptr %6, align 4
  store ptr %2, ptr %7, align 8
  call void @llvm.lifetime.start.p0(i64 8, ptr %8) #6
  %10 = load i32, ptr @plugin_inited, align 4
  %11 = icmp eq i32 %10, 1
  br i1 %11, label %12, label %13

12:                                               ; preds = %3
  store ptr null, ptr %4, align 8
  store i32 1, ptr %9, align 4
  br label %39

13:                                               ; preds = %3
  %14 = load ptr, ptr getelementptr inbounds nuw (%struct.slurm_acct_storage_ops, ptr @ops, i32 0, i32 68), align 8
  %15 = load ptr, ptr %5, align 8
  %16 = load i32, ptr %6, align 4
  %17 = load ptr, ptr %7, align 8
  %18 = call ptr %14(ptr noundef %15, i32 noundef %16, ptr noundef %17)
  store ptr %18, ptr %8, align 8
  %19 = load ptr, ptr %8, align 8
  %20 = icmp ne ptr %19, null
  br i1 %20, label %21, label %37

21:                                               ; preds = %13
  %22 = load ptr, ptr %7, align 8
  %23 = icmp ne ptr %22, null
  br i1 %23, label %24, label %37

24:                                               ; preds = %21
  %25 = load ptr, ptr %7, align 8
  %26 = getelementptr inbounds nuw %struct.slurmdb_job_cond_t, ptr %25, i32 0, i32 2
  %27 = load ptr, ptr %26, align 8
  %28 = icmp ne ptr %27, null
  br i1 %28, label %29, label %37

29:                                               ; preds = %24
  %30 = load ptr, ptr %7, align 8
  %31 = getelementptr inbounds nuw %struct.slurmdb_job_cond_t, ptr %30, i32 0, i32 2
  %32 = load ptr, ptr %31, align 8
  %33 = call i32 @list_count(ptr noundef %32)
  %34 = icmp sgt i32 %33, 1
  br i1 %34, label %35, label %37

35:                                               ; preds = %29
  %36 = load ptr, ptr %8, align 8
  call void @list_sort(ptr noundef %36, ptr noundef @_sort_desc_submit_time)
  br label %37

37:                                               ; preds = %35, %29, %24, %21, %13
  %38 = load ptr, ptr %8, align 8
  store ptr %38, ptr %4, align 8
  store i32 1, ptr %9, align 4
  br label %39

39:                                               ; preds = %37, %12
  call void @llvm.lifetime.end.p0(i64 8, ptr %8) #6
  %40 = load ptr, ptr %4, align 8
  ret ptr %40
}