; Function Attrs: nounwind uwtable
define dso_local ptr @jobacct_storage_g_get_jobs_cond(ptr noundef %0, i32 noundef %1, ptr noundef %2) local_unnamed_addr #0 {
  %4 = load i32, ptr @plugin_inited, align 4
  %5 = icmp eq i32 %4, 1
  br i1 %5, label %18, label %6

6:                                                ; preds = %3
  %7 = load ptr, ptr getelementptr inbounds nuw (i8, ptr @ops, i64 544), align 8
  %8 = tail call ptr %7(ptr noundef %0, i32 noundef %1, ptr noundef %2) #8
  %9 = icmp ne ptr %8, null
  %10 = icmp ne ptr %2, null
  %or.cond = and i1 %10, %9
  br i1 %or.cond, label %11, label %18

11:                                               ; preds = %6
  %12 = getelementptr inbounds nuw i8, ptr %2, i64 16
  %13 = load ptr, ptr %12, align 8
  %.not = icmp eq ptr %13, null
  br i1 %.not, label %18, label %14

14:                                               ; preds = %11
  %15 = tail call i32 @list_count(ptr noundef nonnull %13) #8
  %16 = icmp sgt i32 %15, 1
  br i1 %16, label %17, label %18

17:                                               ; preds = %14
  tail call void @list_sort(ptr noundef nonnull %8, ptr noundef nonnull @_sort_desc_submit_time) #8
  br label %18

18:                                               ; preds = %6, %11, %14, %17, %3
  %.0 = phi ptr [ null, %3 ], [ %8, %17 ], [ %8, %14 ], [ %8, %11 ], [ %8, %6 ]
  ret ptr %.0
}